target datalayout = "e-m:e-p270:32:32-p271:32:32-p272:64:64-i64:64-i128:128-f80:128-n8:16:32:64-S128"
target triple = "x86_64-pc-linux-gnu"

%struct.UriMemoryManagerStruct = type { ptr, ptr, ptr, ptr, ptr, ptr }
%struct.UriParserStateStructW = type { ptr, i32, ptr, ptr }
%struct.UriUriStructW = type { %struct.UriTextRangeStructW, %struct.UriTextRangeStructW, %struct.UriTextRangeStructW, %struct.UriHostDataStructW, %struct.UriTextRangeStructW, ptr, ptr, %struct.UriTextRangeStructW, %struct.UriTextRangeStructW, i32, i32, ptr }
%struct.UriHostDataStructW = type { ptr, ptr, %struct.UriTextRangeStructW }
%struct.UriTextRangeStructW = type { ptr, ptr }
%struct.UriIp4Struct = type { [4 x i8] }

; Function Attrs: inlinehint nounwind uwtable
define internal i32 @uriOnExitOwnPortUserInfoW(ptr noundef %0, ptr noundef %1, ptr noundef %2) #4 {
  %4 = alloca i32, align 4
  %5 = alloca ptr, align 8
  %6 = alloca ptr, align 8
  %7 = alloca ptr, align 8
  store ptr %0, ptr %5, align 8, !tbaa !59
  store ptr %1, ptr %6, align 8, !tbaa !61
  store ptr %2, ptr %7, align 8, !tbaa !10
  %8 = load ptr, ptr %5, align 8, !tbaa !59
  %9 = getelementptr inbounds nuw %struct.UriParserStateStructW, ptr %8, i32 0, i32 0
  %10 = load ptr, ptr %9, align 8, !tbaa !63
  %11 = getelementptr inbounds nuw %struct.UriUriStructW, ptr %10, i32 0, i32 1
  %12 = getelementptr inbounds nuw %struct.UriTextRangeStructW, ptr %11, i32 0, i32 0
  %13 = load ptr, ptr %12, align 8, !tbaa !78
  %14 = load ptr, ptr %5, align 8, !tbaa !59
  %15 = getelementptr inbounds nuw %struct.UriParserStateStructW, ptr %14, i32 0, i32 0
  %16 = load ptr, ptr %15, align 8, !tbaa !63
  %17 = getelementptr inbounds nuw %struct.UriUriStructW, ptr %16, i32 0, i32 2
  %18 = getelementptr inbounds nuw %struct.UriTextRangeStructW, ptr %17, i32 0, i32 0
  store ptr %13, ptr %18, align 8, !tbaa !82
  %19 = load ptr, ptr %5, align 8, !tbaa !59
  %20 = getelementptr inbounds nuw %struct.UriParserStateStructW, ptr %19, i32 0, i32 0
  %21 = load ptr, ptr %20, align 8, !tbaa !63
  %22 = getelementptr inbounds nuw %struct.UriUriStructW, ptr %21, i32 0, i32 1
  %23 = getelementptr inbounds nuw %struct.UriTextRangeStructW, ptr %22, i32 0, i32 0
  store ptr null, ptr %23, align 8, !tbaa !78
  %24 = load ptr, ptr %6, align 8, !tbaa !61
  %25 = load ptr, ptr %5, align 8, !tbaa !59
  %26 = getelementptr inbounds nuw %struct.UriParserStateStructW, ptr %25, i32 0, i32 0
  %27 = load ptr, ptr %26, align 8, !tbaa !63
  %28 = getelementptr inbounds nuw %struct.UriUriStructW, ptr %27, i32 0, i32 4
  %29 = getelementptr inbounds nuw %struct.UriTextRangeStructW, ptr %28, i32 0, i32 1
  store ptr %24, ptr %29, align 8, !tbaa !87
  %30 = load ptr, ptr %7, align 8, !tbaa !10
  %31 = getelementptr inbounds nuw %struct.UriMemoryManagerStruct, ptr %30, i32 0, i32 0
  %32 = load ptr, ptr %31, align 8, !tbaa !56
  %33 = load ptr, ptr %7, align 8, !tbaa !10
  %34 = call ptr %32(ptr noundef %33, i64 noundef 4)
  %35 = load ptr, ptr %5, align 8, !tbaa !59
  %36 = getelementptr inbounds nuw %struct.UriParserStateStructW, ptr %35, i32 0, i32 0
  %37 = load ptr, ptr %36, align 8, !tbaa !63
  %38 = getelementptr inbounds nuw %struct.UriUriStructW, ptr %37, i32 0, i32 3
  %39 = getelementptr inbounds nuw %struct.UriHostDataStructW, ptr %38, i32 0, i32 0
  store ptr %34, ptr %39, align 8, !tbaa !84
  %40 = load ptr, ptr %5, align 8, !tbaa !59
  %41 = getelementptr inbounds nuw %struct.UriParserStateStructW, ptr %40, i32 0, i32 0
  %42 = load ptr, ptr %41, align 8, !tbaa !63
  %43 = getelementptr inbounds nuw %struct.UriUriStructW, ptr %42, i32 0, i32 3
  %44 = getelementptr inbounds nuw %struct.UriHostDataStructW, ptr %43, i32 0, i32 0
  %45 = load ptr, ptr %44, align 8, !tbaa !84
  %46 = icmp eq ptr %45, null
  br i1 %46, label %47, label %48

47:                                               ; preds = %3
  store i32 0, ptr %4, align 4
  br label %88

48:                                               ; preds = %3
  %49 = load ptr, ptr %5, align 8, !tbaa !59
  %50 = getelementptr inbounds nuw %struct.UriParserStateStructW, ptr %49, i32 0, i32 0
  %51 = load ptr, ptr %50, align 8, !tbaa !63
  %52 = getelementptr inbounds nuw %struct.UriUriStructW, ptr %51, i32 0, i32 3
  %53 = getelementptr inbounds nuw %struct.UriHostDataStructW, ptr %52, i32 0, i32 0
  %54 = load ptr, ptr %53, align 8, !tbaa !84
  %55 = getelementptr inbounds nuw %struct.UriIp4Struct, ptr %54, i32 0, i32 0
  %56 = getelementptr inbounds [4 x i8], ptr %55, i64 0, i64 0
  %57 = load ptr, ptr %5, align 8, !tbaa !59
  %58 = getelementptr inbounds nuw %struct.UriParserStateStructW, ptr %57, i32 0, i32 0
  %59 = load ptr, ptr %58, align 8, !tbaa !63
  %60 = getelementptr inbounds nuw %struct.UriUriStructW, ptr %59, i32 0, i32 2
  %61 = getelementptr inbounds nuw %struct.UriTextRangeStructW, ptr %60, i32 0, i32 0
  %62 = load ptr, ptr %61, align 8, !tbaa !82
  %63 = load ptr, ptr %5, align 8, !tbaa !59
  %64 = getelementptr inbounds nuw %struct.UriParserStateStructW, ptr %63, i32 0, i32 0
  %65 = load ptr, ptr %64, align 8, !tbaa !63
  %66 = getelementptr inbounds nuw %struct.UriUriStructW, ptr %65, i32 0, i32 2
  %67 = getelementptr inbounds nuw %struct.UriTextRangeStructW, ptr %66, i32 0, i32 1
  %68 = load ptr, ptr %67, align 8, !tbaa !83
  %69 = call i32 @uriParseIpFourAddressW(ptr noundef %56, ptr noundef %62, ptr noundef %68)
  %70 = icmp ne i32 %69, 0
  br i1 %70, label %71, label %87

71:                                               ; preds = %48
  %72 = load ptr, ptr %7, align 8, !tbaa !10
  %73 = getelementptr inbounds nuw %struct.UriMemoryManagerStruct, ptr %72, i32 0, i32 4
  %74 = load ptr, ptr %73, align 8, !tbaa !31
  %75 = load ptr, ptr %7, align 8, !tbaa !10
  %76 = load ptr, ptr %5, align 8, !tbaa !59
  %77 = getelementptr inbounds nuw %struct.UriParserStateStructW, ptr %76, i32 0, i32 0
  %78 = load ptr, ptr %77, align 8, !tbaa !63
  %79 = getelementptr inbounds nuw %struct.UriUriStructW, ptr %78, i32 0, i32 3
  %80 = getelementptr inbounds nuw %struct.UriHostDataStructW, ptr %79, i32 0, i32 0
  %81 = load ptr, ptr %80, align 8, !tbaa !84
  call void %74(ptr noundef %75, ptr noundef %81)
  %82 = load ptr, ptr %5, align 8, !tbaa !59
  %83 = getelementptr inbounds nuw %struct.UriParserStateStructW, ptr %82, i32 0, i32 0
  %84 = load ptr, ptr %83, align 8, !tbaa !63
  %85 = getelementptr inbounds nuw %struct.UriUriStructW, ptr %84, i32 0, i32 3
  %86 = getelementptr inbounds nuw %struct.UriHostDataStructW, ptr %85, i32 0, i32 0
  store ptr null, ptr %86, align 8, !tbaa !84
  br label %87

87:                                               ; preds = %71, %48
  store i32 1, ptr %4, align 4
  br label %88

88:                                               ; preds = %87, %47
  %89 = load i32, ptr %4, align 4
  ret i32 %89
}